; Function Attrs: nounwind uwtable
define internal void @pkey_test_cleanup(ptr noundef readonly captures(none) %0) #1 {
  %2 = getelementptr inbounds nuw i8, ptr %0, i64 35272
  %3 = load ptr, ptr %2, align 8, !tbaa !20
  %4 = getelementptr inbounds nuw i8, ptr %3, i64 72
  %5 = load ptr, ptr %4, align 8, !tbaa !288
  tail call void @OPENSSL_sk_pop_free(ptr noundef %5, ptr noundef nonnull @openssl_free) #10
  %6 = getelementptr inbounds nuw i8, ptr %3, i64 80
  %7 = load ptr, ptr %6, align 8, !tbaa !289
  tail call void @OPENSSL_sk_pop_free(ptr noundef %7, ptr noundef nonnull @openssl_free) #10
  %8 = getelementptr inbounds nuw i8, ptr %3, i64 40
  %9 = load ptr, ptr %8, align 8, !tbaa !290
  tail call void @CRYPTO_free(ptr noundef %9, ptr noundef nonnull @.str.29, i32 noundef 2570) #10
  %10 = getelementptr inbounds nuw i8, ptr %3, i64 56
  %11 = load ptr, ptr %10, align 8, !tbaa !291
  tail call void @CRYPTO_free(ptr noundef %11, ptr noundef nonnull @.str.29, i32 noundef 2571) #10
  %12 = load ptr, ptr %3, align 8, !tbaa !292
  tail call void @EVP_PKEY_CTX_free(ptr noundef %12) #10
  %13 = getelementptr inbounds nuw i8, ptr %3, i64 8
  %14 = load ptr, ptr %13, align 8, !tbaa !293
  tail call void @EVP_SIGNATURE_free(ptr noundef %14) #10
  ret void
}